target datalayout = "e-m:e-p270:32:32-p271:32:32-p272:64:64-i64:64-i128:128-f80:128-n8:16:32:64-S128"
target triple = "x86_64-pc-linux-gnu"

%struct.archive_write = type { %struct.archive, i32, i64, i64, ptr, i64, ptr, ptr, ptr, ptr, ptr, i32, i32, ptr, ptr, ptr, ptr, ptr, ptr, ptr, ptr, ptr, ptr, ptr, ptr, ptr, ptr }
%struct.archive = type { i32, i32, ptr, i32, ptr, i32, i32, ptr, %struct.archive_string, ptr, i32, i32, ptr, ptr, i64, i64, i64, i8, i64 }
%struct.archive_string = type { ptr, i64, i64 }
%struct.gnutar = type { i64, i64, ptr, i64, ptr, i64, ptr, i64, ptr, i64, ptr, ptr, i32 }

; Function Attrs: nounwind uwtable
define internal i64 @archive_write_gnutar_data(ptr noundef %0, ptr noundef %1, i64 noundef %2) #0 {
  %4 = alloca i64, align 8
  %5 = alloca ptr, align 8
  %6 = alloca ptr, align 8
  %7 = alloca i64, align 8
  %8 = alloca ptr, align 8
  %9 = alloca i32, align 4
  store ptr %0, ptr %5, align 8
  store ptr %1, ptr %6, align 8
  store i64 %2, ptr %7, align 8
  %10 = load ptr, ptr %5, align 8
  %11 = getelementptr inbounds %struct.archive_write, ptr %10, i32 0, i32 15
  %12 = load ptr, ptr %11, align 8
  store ptr %12, ptr %8, align 8
  %13 = load i64, ptr %7, align 8
  %14 = load ptr, ptr %8, align 8
  %15 = getelementptr inbounds %struct.gnutar, ptr %14, i32 0, i32 0
  %16 = load i64, ptr %15, align 8
  %17 = icmp ugt i64 %13, %16
  br i1 %17, label %18, label %22

18:                                               ; preds = %3
  %19 = load ptr, ptr %8, align 8
  %20 = getelementptr inbounds %struct.gnutar, ptr %19, i32 0, i32 0
  %21 = load i64, ptr %20, align 8
  store i64 %21, ptr %7, align 8
  br label %22

22:                                               ; preds = %18, %3
  %23 = load ptr, ptr %5, align 8
  %24 = load ptr, ptr %6, align 8
  %25 = load i64, ptr %7, align 8
  %26 = call i32 @__archive_write_output(ptr noundef %23, ptr noundef %24, i64 noundef %25)
  store i32 %26, ptr %9, align 4
  %27 = load i64, ptr %7, align 8
  %28 = load ptr, ptr %8, align 8
  %29 = getelementptr inbounds %struct.gnutar, ptr %28, i32 0, i32 0
  %30 = load i64, ptr %29, align 8
  %31 = sub i64 %30, %27
  store i64 %31, ptr %29, align 8
  %32 = load i32, ptr %9, align 4
  %33 = icmp ne i32 %32, 0
  br i1 %33, label %34, label %37

34:                                               ; preds = %22
  %35 = load i32, ptr %9, align 4
  %36 = sext i32 %35 to i64
  store i64 %36, ptr %4, align 8
  br label %39

37:                                               ; preds = %22
  %38 = load i64, ptr %7, align 8
  store i64 %38, ptr %4, align 8
  br label %39

39:                                               ; preds = %37, %34
  %40 = load i64, ptr %4, align 8
  ret i64 %40
}